target datalayout = "e-m:e-p270:32:32-p271:32:32-p272:64:64-i64:64-i128:128-f80:128-n8:16:32:64-S128"
target triple = "x86_64-pc-linux-gnu"

%struct.FilterParams = type { i32, double, ptr, ptr, ptr }

; Function Attrs: nounwind uwtable
define internal void @blend_burn_8bit(ptr noundef %0, i64 noundef %1, ptr noundef %2, i64 noundef %3, ptr noundef %4, i64 noundef %5, i64 noundef %6, i64 noundef %7, ptr noundef %8, ptr noundef %9) #0 {
  %11 = alloca ptr, align 8
  %12 = alloca i64, align 8
  %13 = alloca ptr, align 8
  %14 = alloca i64, align 8
  %15 = alloca ptr, align 8
  %16 = alloca i64, align 8
  %17 = alloca i64, align 8
  %18 = alloca i64, align 8
  %19 = alloca ptr, align 8
  %20 = alloca ptr, align 8
  %21 = alloca ptr, align 8
  %22 = alloca ptr, align 8
  %23 = alloca ptr, align 8
  %24 = alloca float, align 4
  %25 = alloca i32, align 4
  %26 = alloca i32, align 4
  %27 = alloca i32, align 4
  store ptr %0, ptr %11, align 8, !tbaa !46
  store i64 %1, ptr %12, align 8, !tbaa !88
  store ptr %2, ptr %13, align 8, !tbaa !46
  store i64 %3, ptr %14, align 8, !tbaa !88
  store ptr %4, ptr %15, align 8, !tbaa !46
  store i64 %5, ptr %16, align 8, !tbaa !88
  store i64 %6, ptr %17, align 8, !tbaa !88
  store i64 %7, ptr %18, align 8, !tbaa !88
  store ptr %8, ptr %19, align 8, !tbaa !77
  store ptr %9, ptr %20, align 8, !tbaa !89
  call void @llvm.lifetime.start.p0(i64 8, ptr %21) #12
  %28 = load ptr, ptr %11, align 8, !tbaa !46
  store ptr %28, ptr %21, align 8, !tbaa !46
  call void @llvm.lifetime.start.p0(i64 8, ptr %22) #12
  %29 = load ptr, ptr %13, align 8, !tbaa !46
  store ptr %29, ptr %22, align 8, !tbaa !46
  call void @llvm.lifetime.start.p0(i64 8, ptr %23) #12
  %30 = load ptr, ptr %15, align 8, !tbaa !46
  store ptr %30, ptr %23, align 8, !tbaa !46
  call void @llvm.lifetime.start.p0(i64 4, ptr %24) #12
  %31 = load ptr, ptr %19, align 8, !tbaa !77
  %32 = getelementptr inbounds nuw %struct.FilterParams, ptr %31, i32 0, i32 1
  %33 = load double, ptr %32, align 8, !tbaa !82
  %34 = fptrunc nsz double %33 to float
  store float %34, ptr %24, align 4, !tbaa !99
  %35 = load i64, ptr %16, align 8, !tbaa !88
  %36 = udiv i64 %35, 1
  store i64 %36, ptr %16, align 8, !tbaa !88
  %37 = load i64, ptr %12, align 8, !tbaa !88
  %38 = udiv i64 %37, 1
  store i64 %38, ptr %12, align 8, !tbaa !88
  %39 = load i64, ptr %14, align 8, !tbaa !88
  %40 = udiv i64 %39, 1
  store i64 %40, ptr %14, align 8, !tbaa !88
  call void @llvm.lifetime.start.p0(i64 4, ptr %25) #12
  store i32 0, ptr %25, align 4, !tbaa !37
  br label %41

41:                                               ; preds = %144, %10
  %42 = load i32, ptr %25, align 4, !tbaa !37
  %43 = sext i32 %42 to i64
  %44 = load i64, ptr %18, align 8, !tbaa !88
  %45 = icmp slt i64 %43, %44
  br i1 %45, label %47, label %46

46:                                               ; preds = %41
  store i32 2, ptr %26, align 4
  call void @llvm.lifetime.end.p0(i64 4, ptr %25) #12
  br label %147

47:                                               ; preds = %41
  call void @llvm.lifetime.start.p0(i64 4, ptr %27) #12
  store i32 0, ptr %27, align 4, !tbaa !37
  br label %48

48:                                               ; preds = %131, %47
  %49 = load i32, ptr %27, align 4, !tbaa !37
  %50 = sext i32 %49 to i64
  %51 = load i64, ptr %17, align 8, !tbaa !88
  %52 = icmp slt i64 %50, %51
  br i1 %52, label %54, label %53

53:                                               ; preds = %48
  store i32 5, ptr %26, align 4
  call void @llvm.lifetime.end.p0(i64 4, ptr %27) #12
  br label %134

54:                                               ; preds = %48
  %55 = load ptr, ptr %21, align 8, !tbaa !46
  %56 = load i32, ptr %27, align 4, !tbaa !37
  %57 = sext i32 %56 to i64
  %58 = getelementptr inbounds i8, ptr %55, i64 %57
  %59 = load i8, ptr %58, align 1, !tbaa !109
  %60 = zext i8 %59 to i32
  %61 = sitofp i32 %60 to float
  %62 = load ptr, ptr %21, align 8, !tbaa !46
  %63 = load i32, ptr %27, align 4, !tbaa !37
  %64 = sext i32 %63 to i64
  %65 = getelementptr inbounds i8, ptr %62, i64 %64
  %66 = load i8, ptr %65, align 1, !tbaa !109
  %67 = zext i8 %66 to i32
  %68 = icmp eq i32 %67, 0
  br i1 %68, label %69, label %76

69:                                               ; preds = %54
  %70 = load ptr, ptr %21, align 8, !tbaa !46
  %71 = load i32, ptr %27, align 4, !tbaa !37
  %72 = sext i32 %71 to i64
  %73 = getelementptr inbounds i8, ptr %70, i64 %72
  %74 = load i8, ptr %73, align 1, !tbaa !109
  %75 = zext i8 %74 to i32
  br label %114

76:                                               ; preds = %54
  %77 = load ptr, ptr %22, align 8, !tbaa !46
  %78 = load i32, ptr %27, align 4, !tbaa !37
  %79 = sext i32 %78 to i64
  %80 = getelementptr inbounds i8, ptr %77, i64 %79
  %81 = load i8, ptr %80, align 1, !tbaa !109
  %82 = zext i8 %81 to i32
  %83 = sub nsw i32 255, %82
  %84 = shl i32 %83, 8
  %85 = load ptr, ptr %21, align 8, !tbaa !46
  %86 = load i32, ptr %27, align 4, !tbaa !37
  %87 = sext i32 %86 to i64
  %88 = getelementptr inbounds i8, ptr %85, i64 %87
  %89 = load i8, ptr %88, align 1, !tbaa !109
  %90 = zext i8 %89 to i32
  %91 = sdiv i32 %84, %90
  %92 = sub nsw i32 255, %91
  %93 = icmp sgt i32 0, %92
  br i1 %93, label %94, label %95

94:                                               ; preds = %76
  br label %112

95:                                               ; preds = %76
  %96 = load ptr, ptr %22, align 8, !tbaa !46
  %97 = load i32, ptr %27, align 4, !tbaa !37
  %98 = sext i32 %97 to i64
  %99 = getelementptr inbounds i8, ptr %96, i64 %98
  %100 = load i8, ptr %99, align 1, !tbaa !109
  %101 = zext i8 %100 to i32
  %102 = sub nsw i32 255, %101
  %103 = shl i32 %102, 8
  %104 = load ptr, ptr %21, align 8, !tbaa !46
  %105 = load i32, ptr %27, align 4, !tbaa !37
  %106 = sext i32 %105 to i64
  %107 = getelementptr inbounds i8, ptr %104, i64 %106
  %108 = load i8, ptr %107, align 1, !tbaa !109
  %109 = zext i8 %108 to i32
  %110 = sdiv i32 %103, %109
  %111 = sub nsw i32 255, %110
  br label %112

112:                                              ; preds = %95, %94
  %113 = phi i32 [ 0, %94 ], [ %111, %95 ]
  br label %114

114:                                              ; preds = %112, %69
  %115 = phi i32 [ %75, %69 ], [ %113, %112 ]
  %116 = load ptr, ptr %21, align 8, !tbaa !46
  %117 = load i32, ptr %27, align 4, !tbaa !37
  %118 = sext i32 %117 to i64
  %119 = getelementptr inbounds i8, ptr %116, i64 %118
  %120 = load i8, ptr %119, align 1, !tbaa !109
  %121 = zext i8 %120 to i32
  %122 = sub nsw i32 %115, %121
  %123 = sitofp i32 %122 to float
  %124 = load float, ptr %24, align 4, !tbaa !99
  %125 = call nsz float @llvm.fmuladd.f32(float %123, float %124, float %61)
  %126 = fptoui float %125 to i8
  %127 = load ptr, ptr %23, align 8, !tbaa !46
  %128 = load i32, ptr %27, align 4, !tbaa !37
  %129 = sext i32 %128 to i64
  %130 = getelementptr inbounds i8, ptr %127, i64 %129
  store i8 %126, ptr %130, align 1, !tbaa !109
  br label %131

131:                                              ; preds = %114
  %132 = load i32, ptr %27, align 4, !tbaa !37
  %133 = add nsw i32 %132, 1
  store i32 %133, ptr %27, align 4, !tbaa !37
  br label %48, !llvm.loop !120

134:                                              ; preds = %53
  %135 = load i64, ptr %16, align 8, !tbaa !88
  %136 = load ptr, ptr %23, align 8, !tbaa !46
  %137 = getelementptr inbounds i8, ptr %136, i64 %135
  store ptr %137, ptr %23, align 8, !tbaa !46
  %138 = load i64, ptr %12, align 8, !tbaa !88
  %139 = load ptr, ptr %21, align 8, !tbaa !46
  %140 = getelementptr inbounds i8, ptr %139, i64 %138
  store ptr %140, ptr %21, align 8, !tbaa !46
  %141 = load i64, ptr %14, align 8, !tbaa !88
  %142 = load ptr, ptr %22, align 8, !tbaa !46
  %143 = getelementptr inbounds i8, ptr %142, i64 %141
  store ptr %143, ptr %22, align 8, !tbaa !46
  br label %144

144:                                              ; preds = %134
  %145 = load i32, ptr %25, align 4, !tbaa !37
  %146 = add nsw i32 %145, 1
  store i32 %146, ptr %25, align 4, !tbaa !37
  br label %41, !llvm.loop !121

147:                                              ; preds = %46
  call void @llvm.lifetime.end.p0(i64 4, ptr %24) #12
  call void @llvm.lifetime.end.p0(i64 8, ptr %23) #12
  call void @llvm.lifetime.end.p0(i64 8, ptr %22) #12
  call void @llvm.lifetime.end.p0(i64 8, ptr %21) #12
  ret void
}